(dp0
S'rec'
p1
cnumpy.core.multiarray
_reconstruct
p2
(cnumpy
ndarray
p3
(I0
tp4
S'b'
p5
tp6
Rp7
(I1
(I1
tp8
cnumpy
dtype
p9
(S'f8'
p10
I0
I1
tp11
Rp12
(I3
S'<'
p13
NNNI-1
I-1
I0
tp14
bI00
S'UUUUUU\xb5?'
p15
tp16
bsS'prec'
p17
g2
(g3
(I0
tp18
g5
tp19
Rp20
(I1
(I1
tp21
g12
I00
S'\x00\x00\x00\x00\x00\x00\xf0?'
p22
tp23
bsS'ap'
p24
cnumpy.core.multiarray
scalar
p25
(g12
S'F\x17]t\xd1E\xb7?'
p26
tp27
Rp28
s.